target datalayout = "e-m:e-p270:32:32-p271:32:32-p272:64:64-i64:64-i128:128-f80:128-n8:16:32:64-S128"
target triple = "x86_64-pc-linux-gnu"

%struct.tag_MidiDeviceHandle = type { ptr, ptr, ptr, i32, i64 }

; Function Attrs: nounwind uwtable
define hidden i32 @closeMidiDevice(ptr noundef %0) #0 {
  %2 = alloca i32, align 4
  %3 = alloca ptr, align 8
  %4 = alloca i32, align 4
  store ptr %0, ptr %3, align 8
  %5 = load ptr, ptr %3, align 8
  %6 = icmp ne ptr %5, null
  br i1 %6, label %8, label %7

7:                                                ; preds = %1
  store i32 -11113, ptr %2, align 4
  br label %30

8:                                                ; preds = %1
  %9 = load ptr, ptr %3, align 8
  %10 = getelementptr inbounds %struct.tag_MidiDeviceHandle, ptr %9, i32 0, i32 0
  %11 = load ptr, ptr %10, align 8
  %12 = icmp ne ptr %11, null
  br i1 %12, label %14, label %13

13:                                               ; preds = %8
  store i32 -11113, ptr %2, align 4
  br label %30

14:                                               ; preds = %8
  %15 = load ptr, ptr %3, align 8
  %16 = getelementptr inbounds %struct.tag_MidiDeviceHandle, ptr %15, i32 0, i32 0
  %17 = load ptr, ptr %16, align 8
  %18 = call i32 @snd_rawmidi_close(ptr noundef %17)
  store i32 %18, ptr %4, align 4
  %19 = load ptr, ptr %3, align 8
  %20 = getelementptr inbounds %struct.tag_MidiDeviceHandle, ptr %19, i32 0, i32 2
  %21 = load ptr, ptr %20, align 8
  %22 = icmp ne ptr %21, null
  br i1 %22, label %23, label %27

23:                                               ; preds = %14
  %24 = load ptr, ptr %3, align 8
  %25 = getelementptr inbounds %struct.tag_MidiDeviceHandle, ptr %24, i32 0, i32 2
  %26 = load ptr, ptr %25, align 8
  call void @snd_midi_event_free(ptr noundef %26)
  br label %27

27:                                               ; preds = %23, %14
  %28 = load ptr, ptr %3, align 8
  call void @free(ptr noundef %28) #5
  %29 = load i32, ptr %4, align 4
  store i32 %29, ptr %2, align 4
  br label %30

30:                                               ; preds = %27, %13, %7
  %31 = load i32, ptr %2, align 4
  ret i32 %31
}