; Function Attrs: nounwind uwtable
define hidden i32 @closeMidiDevice(ptr noundef %0) local_unnamed_addr #0 {
  %.not = icmp eq ptr %0, null
  br i1 %.not, label %10, label %2

2:                                                ; preds = %1
  %3 = load ptr, ptr %0, align 8
  %.not10 = icmp eq ptr %3, null
  br i1 %.not10, label %10, label %4

4:                                                ; preds = %2
  %5 = tail call i32 @snd_rawmidi_close(ptr noundef nonnull %3) #12
  %6 = getelementptr inbounds i8, ptr %0, i64 16
  %7 = load ptr, ptr %6, align 8
  %.not11 = icmp eq ptr %7, null
  br i1 %.not11, label %9, label %8

8:                                                ; preds = %4
  tail call void @snd_midi_event_free(ptr noundef nonnull %7) #12
  br label %9

9:                                                ; preds = %8, %4
  tail call void @free(ptr noundef nonnull %0) #12
  br label %10

10:                                               ; preds = %2, %1, %9
  %.0 = phi i32 [ %5, %9 ], [ -11113, %1 ], [ -11113, %2 ]
  ret i32 %.0
}